(dp0
S'MGG_09159'
p1
I179
sS'MGG_10231'
p2
I753
sS'MGG_15046'
p3
I214
sS'MGG_10244'
p4
I434
sS'MGG_14981'
p5
I48
sS'MGG_10247'
p6
I252
sS'MGG_18105'
p7
I204
sS'MGG_18102'
p8
I363
sS'MGG_10926'
p9
I148
sS'MGG_14179'
p10
I115
sS'MGG_10259'
p11
I125
sS'MGG_18108'
p12
I418
s.