(dp0
S'MGG_18102'
p1
I363
sS'MGG_10926'
p2
I148
sS'MGG_10205'
p3
I738
sS'MGG_10241'
p4
I194
sS'MGG_15046'
p5
I214
sS'MGG_10244'
p6
I434
sS'MGG_14981'
p7
I48
sS'MGG_10247'
p8
I252
sS'MGG_18121'
p9
I15
sS'MGG_18106'
p10
I403
sS'MGG_18105'
p11
I204
sS'MGG_18125'
p12
I184
sS'MGG_10267'
p13
I239
sS'MGG_14985'
p14
I609
sS'MGG_14175'
p15
I113
sS'MGG_10266'
p16
I176
sS'MGG_14179'
p17
I115
sS'MGG_18109'
p18
I189
sS'MGG_18108'
p19
I418
sS'MGG_09122'
p20
I975
sS'MGG_18126'
p21
I362
sS'MGG_09129'
p22
I865
sS'MGG_10932'
p23
I153
sS'MGG_14183'
p24
I296
sS'MGG_10931'
p25
I903
sS'MGG_15487'
p26
I929
sS'MGG_10212'
p27
I742
sS'MGG_09168'
p28
I438
sS'MGG_09156'
p29
I716
sS'MGG_03113'
p30
I229
sS'MGG_10231'
p31
I753
sS'MGG_18116'
p32
I514
sS'MGG_10232'
p33
I266
sS'MGG_10255'
p34
I624
sS'MGG_10254'
p35
I259
sS'MGG_09158'
p36
I927
sS'MGG_09159'
p37
I179
sS'MGG_09130'
p38
I779
sS'MGG_09131'
p39
I764
sS'MGG_10259'
p40
I125
s.